; Function Attrs: nounwind uwtable
define ptr @l_Lean_Diff_Histogram_addLeft___at_Lean_Meta_Hint_Suggestions_toHintMessage___spec__6___boxed(ptr noundef %0, ptr noundef %1, ptr noundef %2, ptr noundef %3, ptr noundef %4) local_unnamed_addr #0 {
  %6 = ptrtoint ptr %4 to i64
  %7 = lshr i64 %6, 1
  %8 = trunc i64 %7 to i32
  %9 = and i64 %6, 1
  %.not = icmp eq i64 %9, 0
  br i1 %.not, label %10, label %lean_dec.exit10

10:                                               ; preds = %5
  %11 = load i32, ptr %4, align 4, !tbaa !8
  %12 = icmp sgt i32 %11, 1
  br i1 %12, label %13, label %15, !prof !11

13:                                               ; preds = %10
  %14 = add nsw i32 %11, -1
  store i32 %14, ptr %4, align 4, !tbaa !8
  br label %lean_dec.exit10

15:                                               ; preds = %10
  %.not.i = icmp eq i32 %11, 0
  br i1 %.not.i, label %lean_dec.exit10, label %16

16:                                               ; preds = %15
  tail call void @lean_dec_ref_cold(ptr noundef nonnull %4) #4
  br label %lean_dec.exit10

lean_dec.exit10:                                  ; preds = %16, %15, %13, %5
  %17 = tail call ptr @l_Lean_Diff_Histogram_addLeft___at_Lean_Meta_Hint_Suggestions_toHintMessage___spec__6(ptr noundef %0, ptr noundef %1, ptr noundef %2, ptr noundef %3, i32 noundef %8)
  %18 = ptrtoint ptr %1 to i64
  %19 = and i64 %18, 1
  %.not15 = icmp eq i64 %19, 0
  br i1 %.not15, label %20, label %lean_dec.exit9

20:                                               ; preds = %lean_dec.exit10
  %21 = load i32, ptr %1, align 4, !tbaa !8
  %22 = icmp sgt i32 %21, 1
  br i1 %22, label %23, label %25, !prof !11

23:                                               ; preds = %20
  %24 = add nsw i32 %21, -1
  store i32 %24, ptr %1, align 4, !tbaa !8
  br label %lean_dec.exit9

25:                                               ; preds = %20
  %.not.i11 = icmp eq i32 %21, 0
  br i1 %.not.i11, label %lean_dec.exit9, label %26

26:                                               ; preds = %25
  tail call void @lean_dec_ref_cold(ptr noundef nonnull %1) #4
  br label %lean_dec.exit9

lean_dec.exit9:                                   ; preds = %26, %25, %23, %lean_dec.exit10
  %27 = ptrtoint ptr %0 to i64
  %28 = and i64 %27, 1
  %.not16 = icmp eq i64 %28, 0
  br i1 %.not16, label %29, label %lean_dec.exit

29:                                               ; preds = %lean_dec.exit9
  %30 = load i32, ptr %0, align 4, !tbaa !8
  %31 = icmp sgt i32 %30, 1
  br i1 %31, label %32, label %34, !prof !11

32:                                               ; preds = %29
  %33 = add nsw i32 %30, -1
  store i32 %33, ptr %0, align 4, !tbaa !8
  br label %lean_dec.exit

34:                                               ; preds = %29
  %.not.i13 = icmp eq i32 %30, 0
  br i1 %.not.i13, label %lean_dec.exit, label %35

35:                                               ; preds = %34
  tail call void @lean_dec_ref_cold(ptr noundef nonnull %0) #4
  br label %lean_dec.exit

lean_dec.exit:                                    ; preds = %35, %34, %32, %lean_dec.exit9
  ret ptr %17
}